target datalayout = "e-m:e-p270:32:32-p271:32:32-p272:64:64-i64:64-i128:128-f80:128-n8:16:32:64-S128"
target triple = "x86_64-pc-linux-gnu"

%struct.SDL_EventWatchList = type { ptr, %struct.SDL_EventWatcher, ptr, i32, i8, i8 }
%struct.SDL_EventWatcher = type { ptr, ptr, i8 }
%struct.SDL_CommonEvent = type { i32, i32, i64 }

@SDL_event_watchers = internal global %struct.SDL_EventWatchList zeroinitializer, align 8

; Function Attrs: nounwind uwtable
define hidden i32 @SDL_PeepEvents_REAL(ptr noundef %0, i32 noundef %1, i32 noundef %2, i32 noundef %3, i32 noundef %4) #0 {
  %6 = alloca ptr, align 8
  %7 = alloca i32, align 4
  %8 = alloca i32, align 4
  %9 = alloca i32, align 4
  %10 = alloca i32, align 4
  store ptr %0, ptr %6, align 8
  store i32 %1, ptr %7, align 4
  store i32 %2, ptr %8, align 4
  store i32 %3, ptr %9, align 4
  store i32 %4, ptr %10, align 4
  %11 = load ptr, ptr %6, align 8
  %12 = load i32, ptr %7, align 4
  %13 = load i32, ptr %8, align 4
  %14 = load i32, ptr %9, align 4
  %15 = load i32, ptr %10, align 4
  %16 = call i32 @SDL_PeepEventsInternal(ptr noundef %11, i32 noundef %12, i32 noundef %13, i32 noundef %14, i32 noundef %15, i1 noundef zeroext false)
  ret i32 %16
}

; Function Attrs: nounwind uwtable
define internal zeroext i1 @SDL_CallEventWatchers(ptr noundef %0) #0 {
  %2 = alloca i1, align 1
  %3 = alloca ptr, align 8
  store ptr %0, ptr %3, align 8
  %4 = load ptr, ptr %3, align 8
  %5 = getelementptr inbounds nuw %struct.SDL_CommonEvent, ptr %4, i32 0, i32 0
  %6 = load i32, ptr %5, align 8
  %7 = icmp eq i32 %6, 32512
  br i1 %7, label %8, label %9

8:                                                ; preds = %1
  store i1 true, ptr %2, align 1
  br label %12

9:                                                ; preds = %1
  %10 = load ptr, ptr %3, align 8
  %11 = call zeroext i1 @SDL_DispatchEventWatchList(ptr noundef @SDL_event_watchers, ptr noundef %10)
  store i1 %11, ptr %2, align 1
  br label %12

12:                                               ; preds = %9, %8
  %13 = load i1, ptr %2, align 1
  ret i1 %13
}

; Function Attrs: nounwind uwtable
define hidden zeroext i1 @SDL_PushEvent_REAL(ptr noundef %0) #0 {
  %2 = alloca i1, align 1
  %3 = alloca ptr, align 8
  store ptr %0, ptr %3, align 8
  %4 = load ptr, ptr %3, align 8
  %5 = getelementptr inbounds nuw %struct.SDL_CommonEvent, ptr %4, i32 0, i32 2
  %6 = load i64, ptr %5, align 8
  %7 = icmp ne i64 %6, 0
  br i1 %7, label %12, label %8

8:                                                ; preds = %1
  %9 = call i64 @SDL_GetTicksNS_REAL()
  %10 = load ptr, ptr %3, align 8
  %11 = getelementptr inbounds nuw %struct.SDL_CommonEvent, ptr %10, i32 0, i32 2
  store i64 %9, ptr %11, align 8
  br label %12

12:                                               ; preds = %8, %1
  %13 = load ptr, ptr %3, align 8
  %14 = call zeroext i1 @SDL_CallEventWatchers(ptr noundef %13)
  br i1 %14, label %17, label %15

15:                                               ; preds = %12
  %16 = call zeroext i1 @SDL_ClearError_REAL()
  store i1 false, ptr %2, align 1
  br label %23

17:                                               ; preds = %12
  %18 = load ptr, ptr %3, align 8
  %19 = call i32 @SDL_PeepEvents_REAL(ptr noundef %18, i32 noundef 1, i32 noundef 0, i32 noundef 0, i32 noundef 0)
  %20 = icmp sle i32 %19, 0
  br i1 %20, label %21, label %22

21:                                               ; preds = %17
  store i1 false, ptr %2, align 1
  br label %23

22:                                               ; preds = %17
  store i1 true, ptr %2, align 1
  br label %23

23:                                               ; preds = %22, %21, %15
  %24 = load i1, ptr %2, align 1
  ret i1 %24
}