; Function Attrs: nounwind uwtable
define hidden zeroext i1 @SDL_PushEvent_REAL(ptr noundef %0) local_unnamed_addr #0 {
  %2 = getelementptr inbounds nuw i8, ptr %0, i64 8
  %3 = load i64, ptr %2, align 8
  %.not = icmp eq i64 %3, 0
  br i1 %.not, label %4, label %6

4:                                                ; preds = %1
  %5 = tail call i64 @SDL_GetTicksNS_REAL() #8
  store i64 %5, ptr %2, align 8
  br label %6

6:                                                ; preds = %4, %1
  %7 = load i32, ptr %0, align 8
  %8 = icmp eq i32 %7, 32512
  br i1 %8, label %SDL_CallEventWatchers.exit.thread, label %SDL_CallEventWatchers.exit

SDL_CallEventWatchers.exit:                       ; preds = %6
  %9 = tail call zeroext i1 @SDL_DispatchEventWatchList(ptr noundef nonnull @SDL_event_watchers, ptr noundef nonnull %0) #8
  br i1 %9, label %SDL_CallEventWatchers.exit.thread, label %10

10:                                               ; preds = %SDL_CallEventWatchers.exit
  %11 = tail call zeroext i1 @SDL_ClearError_REAL() #8
  br label %14

SDL_CallEventWatchers.exit.thread:                ; preds = %6, %SDL_CallEventWatchers.exit
  %12 = tail call fastcc i32 @SDL_PeepEventsInternal(ptr noundef nonnull %0, i32 noundef 1, i32 noundef 0, i32 noundef 0, i32 noundef 0, i1 noundef zeroext false)
  %13 = icmp sgt i32 %12, 0
  br label %14

14:                                               ; preds = %SDL_CallEventWatchers.exit.thread, %10
  %.0 = phi i1 [ false, %10 ], [ %13, %SDL_CallEventWatchers.exit.thread ]
  ret i1 %.0
}